target datalayout = "e-m:e-p270:32:32-p271:32:32-p272:64:64-i64:64-i128:128-f80:128-n8:16:32:64-S128"
target triple = "x86_64-pc-linux-gnu"

%"class.Ipopt::FilterLSAcceptor" = type { %"class.Ipopt::BacktrackingLSAcceptor.base", double, double, double, double, double, double, double, double, double, double, double, i32, double, double, i32, i32, double, i8, i8, i32, i32, double, double, double, double, double, double, %"class.Ipopt::Filter", i8, i32, i32, %"class.Ipopt::SmartPtr.3" }
%"class.Ipopt::BacktrackingLSAcceptor.base" = type { %"class.Ipopt::AlgorithmStrategyObject.base" }
%"class.Ipopt::AlgorithmStrategyObject.base" = type <{ %"class.Ipopt::ReferencedObject.base", [4 x i8], %"class.Ipopt::SmartPtr", %"class.Ipopt::SmartPtr.0", %"class.Ipopt::SmartPtr.1", %"class.Ipopt::SmartPtr.2", i8 }>
%"class.Ipopt::ReferencedObject.base" = type <{ ptr, i32 }>
%"class.Ipopt::SmartPtr" = type { ptr }
%"class.Ipopt::SmartPtr.0" = type { ptr }
%"class.Ipopt::SmartPtr.1" = type { ptr }
%"class.Ipopt::SmartPtr.2" = type { ptr }
%"class.Ipopt::Filter" = type { i32, %"class.std::__cxx11::list" }
%"class.std::__cxx11::list" = type { %"class.std::__cxx11::_List_base" }
%"class.std::__cxx11::_List_base" = type { %"struct.std::__cxx11::_List_base<Ipopt::FilterEntry *, std::allocator<Ipopt::FilterEntry *>>::_List_impl" }
%"struct.std::__cxx11::_List_base<Ipopt::FilterEntry *, std::allocator<Ipopt::FilterEntry *>>::_List_impl" = type { %"struct.std::__detail::_List_node_header" }
%"struct.std::__detail::_List_node_header" = type { %"struct.std::__detail::_List_node_base", i64 }
%"struct.std::__detail::_List_node_base" = type { ptr, ptr }
%"class.Ipopt::SmartPtr.3" = type { ptr }
%"class.Ipopt::AlgorithmStrategyObject" = type <{ %"class.Ipopt::ReferencedObject.base", [4 x i8], %"class.Ipopt::SmartPtr", %"class.Ipopt::SmartPtr.0", %"class.Ipopt::SmartPtr.1", %"class.Ipopt::SmartPtr.2", i8, [7 x i8] }>

@.str.67 = private unnamed_addr constant [52 x i8] c"reference_theta = %e reference_gradBarrTDelta = %e\0A\00", align 1
@.str.68 = private unnamed_addr constant [75 x i8] c"reference_theta is slightly positive at feasible point.  Setting it to %e\0A\00", align 1

; Function Attrs: mustprogress nounwind uwtable
define linkonce_odr noundef nonnull align 8 dereferenceable(40) ptr @_ZNK5Ipopt8SmartPtrIKNS_10JournalistEEdeEv(ptr noundef nonnull align 8 dereferenceable(8) %0) #5 comdat align 2 {
  %2 = alloca ptr, align 8
  store ptr %0, ptr %2, align 8
  %3 = load ptr, ptr %2, align 8
  %4 = getelementptr inbounds %"class.Ipopt::SmartPtr", ptr %3, i32 0, i32 0
  %5 = load ptr, ptr %4, align 8
  ret ptr %5
}

; Function Attrs: mustprogress nounwind uwtable
define linkonce_odr noundef double @_ZNSt14numeric_limitsIdE7epsilonEv() #5 comdat align 2 {
  ret double 0x3CB0000000000000
}

; Function Attrs: mustprogress uwtable
define linkonce_odr noundef nonnull align 8 dereferenceable(40) ptr @_ZNK5Ipopt23AlgorithmStrategyObject5JnlstEv(ptr noundef nonnull align 8 dereferenceable(49) %0) #4 comdat align 2 {
  %2 = alloca ptr, align 8
  store ptr %0, ptr %2, align 8
  %3 = load ptr, ptr %2, align 8
  %4 = getelementptr inbounds %"class.Ipopt::AlgorithmStrategyObject", ptr %3, i32 0, i32 2
  %5 = call noundef nonnull align 8 dereferenceable(40) ptr @_ZNK5Ipopt8SmartPtrIKNS_10JournalistEEdeEv(ptr noundef nonnull align 8 dereferenceable(8) %4)
  ret ptr %5
}

; Function Attrs: mustprogress uwtable
define noundef zeroext i1 @_ZN5Ipopt16FilterLSAcceptor7IsFtypeEd(ptr noundef nonnull align 8 dereferenceable(304) %0, double noundef %1) #4 align 2 {
  %3 = alloca ptr, align 8
  %4 = alloca double, align 8
  %5 = alloca double, align 8
  store ptr %0, ptr %3, align 8
  store double %1, ptr %4, align 8
  %6 = load ptr, ptr %3, align 8
  %7 = call noundef nonnull align 8 dereferenceable(40) ptr @_ZNK5Ipopt23AlgorithmStrategyObject5JnlstEv(ptr noundef nonnull align 8 dereferenceable(49) %6)
  %8 = getelementptr inbounds %"class.Ipopt::FilterLSAcceptor", ptr %6, i32 0, i32 22
  %9 = load double, ptr %8, align 8
  %10 = getelementptr inbounds %"class.Ipopt::FilterLSAcceptor", ptr %6, i32 0, i32 24
  %11 = load double, ptr %10, align 8
  %12 = load ptr, ptr %7, align 8
  %13 = getelementptr inbounds ptr, ptr %12, i64 2
  %14 = load ptr, ptr %13, align 8
  call void (ptr, i32, i32, ptr, ...) %14(ptr noundef nonnull align 8 dereferenceable(40) %7, i32 noundef 7, i32 noundef 8, ptr noundef @.str.67, double noundef %9, double noundef %11)
  %15 = call noundef double @_ZNSt14numeric_limitsIdE7epsilonEv() #3
  store double %15, ptr %5, align 8
  %16 = getelementptr inbounds %"class.Ipopt::FilterLSAcceptor", ptr %6, i32 0, i32 22
  %17 = load double, ptr %16, align 8
  %18 = fcmp oeq double %17, 0.000000e+00
  br i1 %18, label %19, label %39

19:                                               ; preds = %2
  %20 = getelementptr inbounds %"class.Ipopt::FilterLSAcceptor", ptr %6, i32 0, i32 24
  %21 = load double, ptr %20, align 8
  %22 = fcmp ogt double %21, 0.000000e+00
  br i1 %22, label %23, label %39

23:                                               ; preds = %19
  %24 = getelementptr inbounds %"class.Ipopt::FilterLSAcceptor", ptr %6, i32 0, i32 24
  %25 = load double, ptr %24, align 8
  %26 = load double, ptr %5, align 8
  %27 = fmul double 1.000000e+02, %26
  %28 = fcmp olt double %25, %27
  br i1 %28, label %29, label %39

29:                                               ; preds = %23
  %30 = load double, ptr %5, align 8
  %31 = fneg double %30
  %32 = getelementptr inbounds %"class.Ipopt::FilterLSAcceptor", ptr %6, i32 0, i32 24
  store double %31, ptr %32, align 8
  %33 = call noundef nonnull align 8 dereferenceable(40) ptr @_ZNK5Ipopt23AlgorithmStrategyObject5JnlstEv(ptr noundef nonnull align 8 dereferenceable(49) %6)
  %34 = getelementptr inbounds %"class.Ipopt::FilterLSAcceptor", ptr %6, i32 0, i32 24
  %35 = load double, ptr %34, align 8
  %36 = load ptr, ptr %33, align 8
  %37 = getelementptr inbounds ptr, ptr %36, i64 2
  %38 = load ptr, ptr %37, align 8
  call void (ptr, i32, i32, ptr, ...) %38(ptr noundef nonnull align 8 dereferenceable(40) %33, i32 noundef 4, i32 noundef 8, ptr noundef @.str.68, double noundef %35)
  br label %39

39:                                               ; preds = %29, %23, %19, %2
  %40 = getelementptr inbounds %"class.Ipopt::FilterLSAcceptor", ptr %6, i32 0, i32 24
  %41 = load double, ptr %40, align 8
  %42 = fcmp olt double %41, 0.000000e+00
  br i1 %42, label %43, label %61

43:                                               ; preds = %39
  %44 = load double, ptr %4, align 8
  %45 = getelementptr inbounds %"class.Ipopt::FilterLSAcceptor", ptr %6, i32 0, i32 24
  %46 = load double, ptr %45, align 8
  %47 = fneg double %46
  %48 = getelementptr inbounds %"class.Ipopt::FilterLSAcceptor", ptr %6, i32 0, i32 7
  %49 = load double, ptr %48, align 8
  %50 = call double @pow(double noundef %47, double noundef %49) #3
  %51 = fmul double %44, %50
  %52 = getelementptr inbounds %"class.Ipopt::FilterLSAcceptor", ptr %6, i32 0, i32 6
  %53 = load double, ptr %52, align 8
  %54 = getelementptr inbounds %"class.Ipopt::FilterLSAcceptor", ptr %6, i32 0, i32 22
  %55 = load double, ptr %54, align 8
  %56 = getelementptr inbounds %"class.Ipopt::FilterLSAcceptor", ptr %6, i32 0, i32 8
  %57 = load double, ptr %56, align 8
  %58 = call double @pow(double noundef %55, double noundef %57) #3
  %59 = fmul double %53, %58
  %60 = fcmp ogt double %51, %59
  br label %61

61:                                               ; preds = %43, %39
  %62 = phi i1 [ false, %39 ], [ %60, %43 ]
  ret i1 %62
}