; Function Attrs: mustprogress uwtable
define noundef zeroext i1 @_ZN5Ipopt16FilterLSAcceptor7IsFtypeEd(ptr nocapture noundef nonnull align 8 dereferenceable(304) %0, double noundef %1) local_unnamed_addr #3 align 2 {
  %3 = getelementptr inbounds i8, ptr %0, i64 16
  %4 = load ptr, ptr %3, align 8
  %5 = getelementptr inbounds i8, ptr %0, i64 200
  %6 = load double, ptr %5, align 8
  %7 = getelementptr inbounds i8, ptr %0, i64 216
  %8 = load double, ptr %7, align 8
  %9 = load ptr, ptr %4, align 8
  %10 = getelementptr inbounds i8, ptr %9, i64 16
  %11 = load ptr, ptr %10, align 8
  tail call void (ptr, i32, i32, ptr, ...) %11(ptr noundef nonnull align 8 dereferenceable(40) %4, i32 noundef 7, i32 noundef 8, ptr noundef nonnull @.str.67, double noundef %6, double noundef %8)
  %12 = load double, ptr %5, align 8
  %13 = fcmp oeq double %12, 0.000000e+00
  br i1 %13, label %14, label %thread-pre-split

14:                                               ; preds = %2
  %15 = load double, ptr %7, align 8
  %16 = fcmp ogt double %15, 0.000000e+00
  %17 = fcmp olt double %15, 0x3D19000000000000
  %or.cond = and i1 %16, %17
  br i1 %or.cond, label %18, label %23

18:                                               ; preds = %14
  store double 0xBCB0000000000000, ptr %7, align 8
  %19 = load ptr, ptr %3, align 8
  %20 = load ptr, ptr %19, align 8
  %21 = getelementptr inbounds i8, ptr %20, i64 16
  %22 = load ptr, ptr %21, align 8
  tail call void (ptr, i32, i32, ptr, ...) %22(ptr noundef nonnull align 8 dereferenceable(40) %19, i32 noundef 4, i32 noundef 8, ptr noundef nonnull @.str.68, double noundef 0xBCB0000000000000)
  br label %thread-pre-split

thread-pre-split:                                 ; preds = %2, %18
  %.pr = load double, ptr %7, align 8
  br label %23

23:                                               ; preds = %thread-pre-split, %14
  %24 = phi double [ %.pr, %thread-pre-split ], [ %15, %14 ]
  %25 = fcmp olt double %24, 0.000000e+00
  br i1 %25, label %26, label %40

26:                                               ; preds = %23
  %27 = fneg double %24
  %28 = getelementptr inbounds i8, ptr %0, i64 104
  %29 = load double, ptr %28, align 8
  %30 = tail call double @pow(double noundef %27, double noundef %29) #19
  %31 = fmul double %30, %1
  %32 = getelementptr inbounds i8, ptr %0, i64 96
  %33 = load double, ptr %32, align 8
  %34 = load double, ptr %5, align 8
  %35 = getelementptr inbounds i8, ptr %0, i64 112
  %36 = load double, ptr %35, align 8
  %37 = tail call double @pow(double noundef %34, double noundef %36) #19
  %38 = fmul double %33, %37
  %39 = fcmp ogt double %31, %38
  br label %40

40:                                               ; preds = %26, %23
  %41 = phi i1 [ false, %23 ], [ %39, %26 ]
  ret i1 %41
}